main;[ld-2.27.so] 14582
main;[ld-2.27.so];[ld-2.27.so] 69
main;[ld-2.27.so];[unknown] 2
main;[libasan.so.4.0.0] 25563
main;[libasan.so.4.0.0];[libasan.so.4.0.0] 1
main;[libasan.so.4.0.0];[unknown] 26860
main;[libasan.so.4.0.0];[unknown];[unknown] 101
main;[libasan.so.4.0.0];[unknown];[unknown];[unknown] 25006
main;[libc-2.27.so] 48217252
main;[libgomp.so.1.0.0] 62265351
main;[unknown];[ld-2.27.so] 7398
main;[unknown];[libasan.so.4.0.0] 6702056
main;[unknown];[libasan.so.4.0.0];[unknown] 147914
main;[unknown];[libasan.so.4.0.0];[unknown];[libgomp.so.1.0.0];[unknown];[libasan.so.4.0.0] 7937
main;[unknown];[libasan.so.4.0.0];[unknown];[unknown] 22064
main;[unknown];[libasan.so.4.0.0];[unknown];[unknown];[unknown] 55295
main;[unknown];[libasan.so.4.0.0];[unknown];__pthread_setspecific 5332
main;[unknown];[libgomp.so.1.0.0] 1082122722
main;[unknown];[libgomp.so.1.0.0];[unknown] 2681172
main;[unknown];[unknown];[ld-2.27.so];[libasan.so.4.0.0];[unknown];[unknown] 21857
main;[unknown];[unknown];_Z19optimized_do_phase2PmPfS0_m 1228155217
main;[unknown];[unknown];_Z19optimized_do_phase2PmPfS0_m._omp_fn.0 804822008
main;[unknown];[unknown];_Z19optimized_do_phase2PmPfS0_m._omp_fn.1 13100186207
main;[unknown];[unknown];__interceptor_pthread_create;__clone 18
main;[unknown];[unknown];__interceptor_pthread_create;__clone;[unknown] 1
main;[unknown];[unknown];omp_get_num_threads 1
main;[unknown];_Z19optimized_do_phase2PmPfS0_m 48433672
main;[unknown];_Z19optimized_do_phase2PmPfS0_m._omp_fn.0 1
main;[unknown];memcpy;[libc-2.27.so];[unknown];[unknown] 37786
main;[unknown];pthread_attr_destroy;__interceptor_free 28734
main;_Z14do_phase2_only6Config 1243061245
main;_ZNSt24uniform_int_distributionImEclISt26linear_congruential_engineImLm16807ELm0ELm2147483647EEEEmRT_RKNS0_10param_typeE 513257176
main;_ZSt16__introsort_loopIN9__gnu_cxx17__normal_iteratorIPSt4pairIfmESt6vectorIS3_SaIS3_EEEElNS0_5__ops15_Iter_less_iterEEvT_SB_T0_T1_.isra.35 7325479761
main;_ZSt16__introsort_loopIN9__gnu_cxx17__normal_iteratorIPSt4pairIfmESt6vectorIS3_SaIS3_EEEElNS0_5__ops15_Iter_less_iterEEvT_SB_T0_T1_.isra.35;_ZNK9__gnu_cxx5__ops15_Iter_less_iterclINS_17__normal_iteratorIPSt4pairIfmESt6vectorIS5_SaIS5_EEEESA_EEbT_T0_ 102240422
main;_ZSt16__introsort_loopIN9__gnu_cxx17__normal_iteratorIPSt4pairIfmESt6vectorIS3_SaIS3_EEEElNS0_5__ops15_Iter_less_iterEEvT_SB_T0_T1_.isra.35;_ZSt22__move_median_to_firstIN9__gnu_cxx17__normal_iteratorIPSt4pairIfmESt6vectorIS3_SaIS3_EEEENS0_5__ops15_Iter_less_iterEEvT_SB_SB_SB_T0_ 49362070
main;_ZSt16__introsort_loopIN9__gnu_cxx17__normal_iteratorIPSt4pairIfmESt6vectorIS3_SaIS3_EEEElNS0_5__ops15_Iter_less_iterEEvT_SB_T0_T1_.isra.35;_ZSt22__move_median_to_firstIN9__gnu_cxx17__normal_iteratorIPSt4pairIfmESt6vectorIS3_SaIS3_EEEENS0_5__ops15_Iter_less_iterEEvT_SB_SB_SB_T0_;_ZNK9__gnu_cxx5__ops15_Iter_less_iterclINS_17__normal_iteratorIPSt4pairIfmESt6vectorIS5_SaIS5_EEEESA_EEbT_T0_;_ZStltIfmEbRKSt4pairIT_T0_ES5_ 250436102
main;_ZSt16__introsort_loopIN9__gnu_cxx17__normal_iteratorIPSt4pairIfmESt6vectorIS3_SaIS3_EEEElNS0_5__ops15_Iter_less_iterEEvT_SB_T0_T1_.isra.35;_ZSt22__move_median_to_firstIN9__gnu_cxx17__normal_iteratorIPSt4pairIfmESt6vectorIS3_SaIS3_EEEENS0_5__ops15_Iter_less_iterEEvT_SB_SB_SB_T0_;_ZSt9iter_swapIN9__gnu_cxx17__normal_iteratorIPSt4pairIfmESt6vectorIS3_SaIS3_EEEES8_EvT_T0_;_ZSt4swapIfmENSt9enable_ifIXsrSt6__and_IJSt14__is_swappableIT_ES2_IT0_EEE5valueEvE4typeERSt4pairIS3_S5_ESC_ 51027123
main;_ZSt16__introsort_loopIN9__gnu_cxx17__normal_iteratorIPSt4pairIfmESt6vectorIS3_SaIS3_EEEElNS0_5__ops15_Iter_less_iterEEvT_SB_T0_T1_.isra.35;_ZSt22__move_median_to_firstIN9__gnu_cxx17__normal_iteratorIPSt4pairIfmESt6vectorIS3_SaIS3_EEEENS0_5__ops15_Iter_less_iterEEvT_SB_SB_SB_T0_;_ZSt9iter_swapIN9__gnu_cxx17__normal_iteratorIPSt4pairIfmESt6vectorIS3_SaIS3_EEEES8_EvT_T0_;_ZSt4swapIfmENSt9enable_ifIXsrSt6__and_IJSt14__is_swappableIT_ES2_IT0_EEE5valueEvE4typeERSt4pairIS3_S5_ESC_;_ZNSt4pairIfmE4swapERS0_;_ZSt4swapIfENSt9enable_ifIXsrSt6__and_IJSt6__not_ISt15__is_tuple_likeIT_EESt21is_move_constructibleIS4_ESt18is_move_assignableIS4_EEE5valueEvE4typeERS4_SE_ 150927539
main;_ZSt16__introsort_loopIN9__gnu_cxx17__normal_iteratorIPSt4pairIfmESt6vectorIS3_SaIS3_EEEElNS0_5__ops15_Iter_less_iterEEvT_SB_T0_T1_.isra.35;_ZSt22__move_median_to_firstIN9__gnu_cxx17__normal_iteratorIPSt4pairIfmESt6vectorIS3_SaIS3_EEEENS0_5__ops15_Iter_less_iterEEvT_SB_SB_SB_T0_;_ZSt9iter_swapIN9__gnu_cxx17__normal_iteratorIPSt4pairIfmESt6vectorIS3_SaIS3_EEEES8_EvT_T0_;_ZSt4swapIfmENSt9enable_ifIXsrSt6__and_IJSt14__is_swappableIT_ES2_IT0_EEE5valueEvE4typeERSt4pairIS3_S5_ESC_;_ZNSt4pairIfmE4swapERS0_;_ZSt4swapImENSt9enable_ifIXsrSt6__and_IJSt6__not_ISt15__is_tuple_likeIT_EESt21is_move_constructibleIS4_ESt18is_move_assignableIS4_EEE5valueEvE4typeERS4_SE_ 50134998
main;_ZSt16__introsort_loopIN9__gnu_cxx17__normal_iteratorIPSt4pairIfmESt6vectorIS3_SaIS3_EEEElNS0_5__ops15_Iter_less_iterEEvT_SB_T0_T1_.isra.35;_ZSt22__move_median_to_firstIN9__gnu_cxx17__normal_iteratorIPSt4pairIfmESt6vectorIS3_SaIS3_EEEENS0_5__ops15_Iter_less_iterEEvT_SB_SB_SB_T0_;_ZStltIfmEbRKSt4pairIT_T0_ES5_ 50256661
main;_ZSt18generate_canonicalIfLm24ESt26linear_congruential_engineImLm16807ELm0ELm2147483647EEET_RT1_ 310675566
main;_ZSt8generateIPmZ21make_a_index_sequenceS0_mEUlvE_EvT_S2_T0_ 56340178
main;__clone 15
main;__ctype_init 2096
main;__ctype_init;[unknown] 120
main;_init 68
main;pthread_getaffinity_np@@GLIBC_2.3.4;[unknown];[unknown] 27051
main;pthread_getattr_np;[libasan.so.4.0.0] 11420
main;pthread_getattr_np;__interceptor_realloc;[unknown];[unknown] 10741
main;start_thread 476
